	.arch armv8-a
	.file	"asm-offsets.c"
// GNU C11 (Linaro GCC 7.2-2017.10~dev) version 7.2.1 20170913 (aarch64-linaro-linux-android)
//	compiled by GNU C version 7.2.0, GMP version 6.1.2, MPFR version 3.1.5, MPC version 1.0.3, isl version isl-0.18-GMP

// GGC heuristics: --param ggc-min-expand=100 --param ggc-min-heapsize=131072
// options passed:  -nostdinc
// -I /home/yankit293/stock/msm8939v2/arch/arm64/include
// -I arch/arm64/include/generated -I include
// -I /home/yankit293/stock/msm8939v2/arch/arm64/include/uapi
// -I arch/arm64/include/generated/uapi
// -I /home/yankit293/stock/msm8939v2/include/uapi
// -I include/generated/uapi
// -iprefix /home/yankit293/aarch64-linux-android-4.9/bin/../lib/gcc/aarch64-linaro-linux-android/7.2.1/
// -isysroot /home/yankit293/aarch64-linux-android-4.9/bin/../aarch64-linaro-linux-android/sysroot
// -D __KERNEL__ -D CC_HAVE_ASM_GOTO -D KBUILD_STR(s)=#s
// -D KBUILD_BASENAME=KBUILD_STR(asm_offsets)
// -D KBUILD_MODNAME=KBUILD_STR(asm_offsets)
// -isystem /home/yankit293/aarch64-linux-android-4.9/bin/../lib/gcc/aarch64-linaro-linux-android/7.2.1/include
// -include /home/yankit293/stock/msm8939v2/include/linux/kconfig.h
// -MD arch/arm64/kernel/.asm-offsets.s.d arch/arm64/kernel/asm-offsets.c
// -mbionic -fpic -mlittle-endian -mgeneral-regs-only -mabi=lp64
// -auxbase-strip arch/arm64/kernel/asm-offsets.s -g -Os -Wall -Wundef
// -Wstrict-prototypes -Wno-trigraphs -Werror=implicit-function-declaration
// -Wno-format-security -Wno-maybe-uninitialized -Wframe-larger-than=2048
// -Wno-unused-but-set-variable -Wdeclaration-after-statement
// -Wno-pointer-sign -p -fno-strict-aliasing -fno-common
// -fno-delete-null-pointer-checks -fno-stack-protector
// -fno-omit-frame-pointer -fno-optimize-sibling-calls -fno-strict-overflow
// -fconserve-stack -fverbose-asm
// options enabled:  -faggressive-loop-optimizations -falign-functions
// -falign-jumps -falign-labels -falign-loops -fauto-inc-dec
// -fbranch-count-reg -fcaller-saves -fchkp-check-incomplete-type
// -fchkp-check-read -fchkp-check-write -fchkp-instrument-calls
// -fchkp-narrow-bounds -fchkp-optimize -fchkp-store-bounds
// -fchkp-use-static-bounds -fchkp-use-static-const-bounds
// -fchkp-use-wrappers -fcode-hoisting -fcombine-stack-adjustments
// -fcompare-elim -fcprop-registers -fcrossjumping -fcse-follow-jumps
// -fdefer-pop -fdevirtualize -fdevirtualize-speculatively -fdwarf2-cfi-asm
// -fearly-inlining -feliminate-unused-debug-types
// -fexpensive-optimizations -fforward-propagate -ffp-int-builtin-inexact
// -ffunction-cse -fgcse -fgcse-lm -fgnu-runtime -fgnu-unique
// -fguess-branch-probability -fhoist-adjacent-loads -fident
// -fif-conversion -fif-conversion2 -findirect-inlining -finline
// -finline-atomics -finline-functions -finline-functions-called-once
// -finline-small-functions -fipa-bit-cp -fipa-cp -fipa-icf
// -fipa-icf-functions -fipa-icf-variables -fipa-profile -fipa-pure-const
// -fipa-reference -fipa-sra -fipa-vrp -fira-hoist-pressure
// -fira-share-save-slots -fira-share-spill-slots
// -fisolate-erroneous-paths-dereference -fivopts -fkeep-static-consts
// -fleading-underscore -flifetime-dse -flra-remat -flto-odr-type-merging
// -fmath-errno -fmerge-constants -fmerge-debug-strings
// -fmove-loop-invariants -fomit-frame-pointer -fpartial-inlining
// -fpeephole -fpeephole2 -fpic -fplt -fprefetch-loop-arrays -fprofile
// -free -freg-struct-return -freorder-blocks -freorder-functions
// -frerun-cse-after-loop -fsched-critical-path-heuristic
// -fsched-dep-count-heuristic -fsched-group-heuristic -fsched-interblock
// -fsched-last-insn-heuristic -fsched-pressure -fsched-rank-heuristic
// -fsched-spec -fsched-spec-insn-heuristic -fsched-stalled-insns-dep
// -fschedule-fusion -fschedule-insns2 -fsection-anchors
// -fsemantic-interposition -fshow-column -fshrink-wrap
// -fshrink-wrap-separate -fsigned-zeros -fsplit-ivs-in-unroller
// -fsplit-wide-types -fssa-backprop -fssa-phiopt -fstdarg-opt
// -fstore-merging -fstrict-volatile-bitfields -fsync-libcalls
// -fthread-jumps -ftoplevel-reorder -ftrapping-math -ftree-bit-ccp
// -ftree-builtin-call-dce -ftree-ccp -ftree-ch -ftree-coalesce-vars
// -ftree-copy-prop -ftree-cselim -ftree-dce -ftree-dominator-opts
// -ftree-dse -ftree-forwprop -ftree-fre -ftree-loop-if-convert
// -ftree-loop-im -ftree-loop-ivcanon -ftree-loop-optimize
// -ftree-parallelize-loops= -ftree-phiprop -ftree-pre -ftree-pta
// -ftree-reassoc -ftree-scev-cprop -ftree-sink -ftree-slsr -ftree-sra
// -ftree-switch-conversion -ftree-tail-merge -ftree-ter -ftree-vrp
// -funit-at-a-time -fvar-tracking -fvar-tracking-assignments -fverbose-asm
// -fzero-initialized-in-bss -mandroid -mbionic -mfix-cortex-a53-835769
// -mfix-cortex-a53-843419 -mgeneral-regs-only -mlittle-endian
// -momit-leaf-frame-pointer -mpc-relative-literal-loads

	.text
.Ltext0:
	.cfi_sections	.debug_frame
	.global	_mcount
	.section	.text.startup,"ax",@progbits
	.align	2
	.global	main
	.type	main, %function
main:
.LFB1493:
	.file 1 "arch/arm64/kernel/asm-offsets.c"
	.loc 1 34 0
	.cfi_startproc
	stp	x29, x30, [sp, -16]!	//,,,
	.cfi_def_cfa_offset 16
	.cfi_offset 29, -16
	.cfi_offset 30, -8
	add	x29, sp, 0	//,,
	.cfi_def_cfa_register 29
// arch/arm64/kernel/asm-offsets.c:34: {
	.loc 1 34 0
	mov	x0, x30	//,
	bl	_mcount	//
.LVL0:
// arch/arm64/kernel/asm-offsets.c:35:   DEFINE(TSK_ACTIVE_MM,		offsetof(struct task_struct, active_mm));
	.loc 1 35 0
#APP
// 35 "arch/arm64/kernel/asm-offsets.c" 1
	
->TSK_ACTIVE_MM 736 offsetof(struct task_struct, active_mm)	//
// 0 "" 2
// arch/arm64/kernel/asm-offsets.c:36:   BLANK();
	.loc 1 36 0
// 36 "arch/arm64/kernel/asm-offsets.c" 1
	
->
// 0 "" 2
// arch/arm64/kernel/asm-offsets.c:37:   DEFINE(TI_FLAGS,		offsetof(struct thread_info, flags));
	.loc 1 37 0
// 37 "arch/arm64/kernel/asm-offsets.c" 1
	
->TI_FLAGS 0 offsetof(struct thread_info, flags)	//
// 0 "" 2
// arch/arm64/kernel/asm-offsets.c:38:   DEFINE(TI_PREEMPT,		offsetof(struct thread_info, preempt_count));
	.loc 1 38 0
// 38 "arch/arm64/kernel/asm-offsets.c" 1
	
->TI_PREEMPT 80 offsetof(struct thread_info, preempt_count)	//
// 0 "" 2
// arch/arm64/kernel/asm-offsets.c:39:   DEFINE(TI_ADDR_LIMIT,		offsetof(struct thread_info, addr_limit));
	.loc 1 39 0
// 39 "arch/arm64/kernel/asm-offsets.c" 1
	
->TI_ADDR_LIMIT 8 offsetof(struct thread_info, addr_limit)	//
// 0 "" 2
// arch/arm64/kernel/asm-offsets.c:40:   DEFINE(TI_TASK,		offsetof(struct thread_info, task));
	.loc 1 40 0
// 40 "arch/arm64/kernel/asm-offsets.c" 1
	
->TI_TASK 16 offsetof(struct thread_info, task)	//
// 0 "" 2
// arch/arm64/kernel/asm-offsets.c:41:   DEFINE(TI_EXEC_DOMAIN,	offsetof(struct thread_info, exec_domain));
	.loc 1 41 0
// 41 "arch/arm64/kernel/asm-offsets.c" 1
	
->TI_EXEC_DOMAIN 24 offsetof(struct thread_info, exec_domain)	//
// 0 "" 2
// arch/arm64/kernel/asm-offsets.c:42:   DEFINE(TI_CPU,		offsetof(struct thread_info, cpu));
	.loc 1 42 0
// 42 "arch/arm64/kernel/asm-offsets.c" 1
	
->TI_CPU 84 offsetof(struct thread_info, cpu)	//
// 0 "" 2
// arch/arm64/kernel/asm-offsets.c:43:   BLANK();
	.loc 1 43 0
// 43 "arch/arm64/kernel/asm-offsets.c" 1
	
->
// 0 "" 2
// arch/arm64/kernel/asm-offsets.c:44:   DEFINE(THREAD_CPU_CONTEXT,	offsetof(struct task_struct, thread.cpu_context));
	.loc 1 44 0
// 44 "arch/arm64/kernel/asm-offsets.c" 1
	
->THREAD_CPU_CONTEXT 1264 offsetof(struct task_struct, thread.cpu_context)	//
// 0 "" 2
// arch/arm64/kernel/asm-offsets.c:45:   BLANK();
	.loc 1 45 0
// 45 "arch/arm64/kernel/asm-offsets.c" 1
	
->
// 0 "" 2
// arch/arm64/kernel/asm-offsets.c:46:   DEFINE(S_X0,			offsetof(struct pt_regs, regs[0]));
	.loc 1 46 0
// 46 "arch/arm64/kernel/asm-offsets.c" 1
	
->S_X0 0 offsetof(struct pt_regs, regs[0])	//
// 0 "" 2
// arch/arm64/kernel/asm-offsets.c:47:   DEFINE(S_X1,			offsetof(struct pt_regs, regs[1]));
	.loc 1 47 0
// 47 "arch/arm64/kernel/asm-offsets.c" 1
	
->S_X1 8 offsetof(struct pt_regs, regs[1])	//
// 0 "" 2
// arch/arm64/kernel/asm-offsets.c:48:   DEFINE(S_X2,			offsetof(struct pt_regs, regs[2]));
	.loc 1 48 0
// 48 "arch/arm64/kernel/asm-offsets.c" 1
	
->S_X2 16 offsetof(struct pt_regs, regs[2])	//
// 0 "" 2
// arch/arm64/kernel/asm-offsets.c:49:   DEFINE(S_X3,			offsetof(struct pt_regs, regs[3]));
	.loc 1 49 0
// 49 "arch/arm64/kernel/asm-offsets.c" 1
	
->S_X3 24 offsetof(struct pt_regs, regs[3])	//
// 0 "" 2
// arch/arm64/kernel/asm-offsets.c:50:   DEFINE(S_X4,			offsetof(struct pt_regs, regs[4]));
	.loc 1 50 0
// 50 "arch/arm64/kernel/asm-offsets.c" 1
	
->S_X4 32 offsetof(struct pt_regs, regs[4])	//
// 0 "" 2
// arch/arm64/kernel/asm-offsets.c:51:   DEFINE(S_X5,			offsetof(struct pt_regs, regs[5]));
	.loc 1 51 0
// 51 "arch/arm64/kernel/asm-offsets.c" 1
	
->S_X5 40 offsetof(struct pt_regs, regs[5])	//
// 0 "" 2
// arch/arm64/kernel/asm-offsets.c:52:   DEFINE(S_X6,			offsetof(struct pt_regs, regs[6]));
	.loc 1 52 0
// 52 "arch/arm64/kernel/asm-offsets.c" 1
	
->S_X6 48 offsetof(struct pt_regs, regs[6])	//
// 0 "" 2
// arch/arm64/kernel/asm-offsets.c:53:   DEFINE(S_X7,			offsetof(struct pt_regs, regs[7]));
	.loc 1 53 0
// 53 "arch/arm64/kernel/asm-offsets.c" 1
	
->S_X7 56 offsetof(struct pt_regs, regs[7])	//
// 0 "" 2
// arch/arm64/kernel/asm-offsets.c:54:   DEFINE(S_LR,			offsetof(struct pt_regs, regs[30]));
	.loc 1 54 0
// 54 "arch/arm64/kernel/asm-offsets.c" 1
	
->S_LR 240 offsetof(struct pt_regs, regs[30])	//
// 0 "" 2
// arch/arm64/kernel/asm-offsets.c:55:   DEFINE(S_SP,			offsetof(struct pt_regs, sp));
	.loc 1 55 0
// 55 "arch/arm64/kernel/asm-offsets.c" 1
	
->S_SP 248 offsetof(struct pt_regs, sp)	//
// 0 "" 2
// arch/arm64/kernel/asm-offsets.c:57:   DEFINE(S_COMPAT_SP,		offsetof(struct pt_regs, compat_sp));
	.loc 1 57 0
// 57 "arch/arm64/kernel/asm-offsets.c" 1
	
->S_COMPAT_SP 104 offsetof(struct pt_regs, compat_sp)	//
// 0 "" 2
// arch/arm64/kernel/asm-offsets.c:59:   DEFINE(S_PSTATE,		offsetof(struct pt_regs, pstate));
	.loc 1 59 0
// 59 "arch/arm64/kernel/asm-offsets.c" 1
	
->S_PSTATE 264 offsetof(struct pt_regs, pstate)	//
// 0 "" 2
// arch/arm64/kernel/asm-offsets.c:60:   DEFINE(S_PC,			offsetof(struct pt_regs, pc));
	.loc 1 60 0
// 60 "arch/arm64/kernel/asm-offsets.c" 1
	
->S_PC 256 offsetof(struct pt_regs, pc)	//
// 0 "" 2
// arch/arm64/kernel/asm-offsets.c:61:   DEFINE(S_ORIG_X0,		offsetof(struct pt_regs, orig_x0));
	.loc 1 61 0
// 61 "arch/arm64/kernel/asm-offsets.c" 1
	
->S_ORIG_X0 272 offsetof(struct pt_regs, orig_x0)	//
// 0 "" 2
// arch/arm64/kernel/asm-offsets.c:62:   DEFINE(S_SYSCALLNO,		offsetof(struct pt_regs, syscallno));
	.loc 1 62 0
// 62 "arch/arm64/kernel/asm-offsets.c" 1
	
->S_SYSCALLNO 280 offsetof(struct pt_regs, syscallno)	//
// 0 "" 2
// arch/arm64/kernel/asm-offsets.c:63:   DEFINE(S_FRAME_SIZE,		sizeof(struct pt_regs));
	.loc 1 63 0
// 63 "arch/arm64/kernel/asm-offsets.c" 1
	
->S_FRAME_SIZE 288 sizeof(struct pt_regs)	//
// 0 "" 2
// arch/arm64/kernel/asm-offsets.c:64:   BLANK();
	.loc 1 64 0
// 64 "arch/arm64/kernel/asm-offsets.c" 1
	
->
// 0 "" 2
// arch/arm64/kernel/asm-offsets.c:65:   DEFINE(MM_CONTEXT_ID,		offsetof(struct mm_struct, context.id));
	.loc 1 65 0
// 65 "arch/arm64/kernel/asm-offsets.c" 1
	
->MM_CONTEXT_ID 680 offsetof(struct mm_struct, context.id)	//
// 0 "" 2
// arch/arm64/kernel/asm-offsets.c:66:   BLANK();
	.loc 1 66 0
// 66 "arch/arm64/kernel/asm-offsets.c" 1
	
->
// 0 "" 2
// arch/arm64/kernel/asm-offsets.c:67:   DEFINE(VMA_VM_MM,		offsetof(struct vm_area_struct, vm_mm));
	.loc 1 67 0
// 67 "arch/arm64/kernel/asm-offsets.c" 1
	
->VMA_VM_MM 64 offsetof(struct vm_area_struct, vm_mm)	//
// 0 "" 2
// arch/arm64/kernel/asm-offsets.c:68:   DEFINE(VMA_VM_FLAGS,		offsetof(struct vm_area_struct, vm_flags));
	.loc 1 68 0
// 68 "arch/arm64/kernel/asm-offsets.c" 1
	
->VMA_VM_FLAGS 80 offsetof(struct vm_area_struct, vm_flags)	//
// 0 "" 2
// arch/arm64/kernel/asm-offsets.c:69:   BLANK();
	.loc 1 69 0
// 69 "arch/arm64/kernel/asm-offsets.c" 1
	
->
// 0 "" 2
// arch/arm64/kernel/asm-offsets.c:70:   DEFINE(VM_EXEC,	       	VM_EXEC);
	.loc 1 70 0
// 70 "arch/arm64/kernel/asm-offsets.c" 1
	
->VM_EXEC 4 VM_EXEC	//
// 0 "" 2
// arch/arm64/kernel/asm-offsets.c:71:   BLANK();
	.loc 1 71 0
// 71 "arch/arm64/kernel/asm-offsets.c" 1
	
->
// 0 "" 2
// arch/arm64/kernel/asm-offsets.c:72:   DEFINE(PAGE_SZ,	       	PAGE_SIZE);
	.loc 1 72 0
// 72 "arch/arm64/kernel/asm-offsets.c" 1
	
->PAGE_SZ 4096 PAGE_SIZE	//
// 0 "" 2
// arch/arm64/kernel/asm-offsets.c:73:   BLANK();
	.loc 1 73 0
// 73 "arch/arm64/kernel/asm-offsets.c" 1
	
->
// 0 "" 2
// arch/arm64/kernel/asm-offsets.c:74:   DEFINE(CPU_INFO_SZ,		sizeof(struct cpu_info));
	.loc 1 74 0
// 74 "arch/arm64/kernel/asm-offsets.c" 1
	
->CPU_INFO_SZ 24 sizeof(struct cpu_info)	//
// 0 "" 2
// arch/arm64/kernel/asm-offsets.c:75:   DEFINE(CPU_INFO_SETUP,	offsetof(struct cpu_info, cpu_setup));
	.loc 1 75 0
// 75 "arch/arm64/kernel/asm-offsets.c" 1
	
->CPU_INFO_SETUP 16 offsetof(struct cpu_info, cpu_setup)	//
// 0 "" 2
// arch/arm64/kernel/asm-offsets.c:76:   BLANK();
	.loc 1 76 0
// 76 "arch/arm64/kernel/asm-offsets.c" 1
	
->
// 0 "" 2
// arch/arm64/kernel/asm-offsets.c:77:   DEFINE(DMA_BIDIRECTIONAL,	DMA_BIDIRECTIONAL);
	.loc 1 77 0
// 77 "arch/arm64/kernel/asm-offsets.c" 1
	
->DMA_BIDIRECTIONAL 0 DMA_BIDIRECTIONAL	//
// 0 "" 2
// arch/arm64/kernel/asm-offsets.c:78:   DEFINE(DMA_TO_DEVICE,		DMA_TO_DEVICE);
	.loc 1 78 0
// 78 "arch/arm64/kernel/asm-offsets.c" 1
	
->DMA_TO_DEVICE 1 DMA_TO_DEVICE	//
// 0 "" 2
// arch/arm64/kernel/asm-offsets.c:79:   DEFINE(DMA_FROM_DEVICE,	DMA_FROM_DEVICE);
	.loc 1 79 0
// 79 "arch/arm64/kernel/asm-offsets.c" 1
	
->DMA_FROM_DEVICE 2 DMA_FROM_DEVICE	//
// 0 "" 2
// arch/arm64/kernel/asm-offsets.c:80:   BLANK();
	.loc 1 80 0
// 80 "arch/arm64/kernel/asm-offsets.c" 1
	
->
// 0 "" 2
// arch/arm64/kernel/asm-offsets.c:81:   DEFINE(CLOCK_REALTIME,	CLOCK_REALTIME);
	.loc 1 81 0
// 81 "arch/arm64/kernel/asm-offsets.c" 1
	
->CLOCK_REALTIME 0 CLOCK_REALTIME	//
// 0 "" 2
// arch/arm64/kernel/asm-offsets.c:82:   DEFINE(CLOCK_MONOTONIC,	CLOCK_MONOTONIC);
	.loc 1 82 0
// 82 "arch/arm64/kernel/asm-offsets.c" 1
	
->CLOCK_MONOTONIC 1 CLOCK_MONOTONIC	//
// 0 "" 2
// arch/arm64/kernel/asm-offsets.c:83:   DEFINE(CLOCK_REALTIME_RES,	MONOTONIC_RES_NSEC);
	.loc 1 83 0
// 83 "arch/arm64/kernel/asm-offsets.c" 1
	
->CLOCK_REALTIME_RES 1 MONOTONIC_RES_NSEC	//
// 0 "" 2
// arch/arm64/kernel/asm-offsets.c:84:   DEFINE(CLOCK_REALTIME_COARSE,	CLOCK_REALTIME_COARSE);
	.loc 1 84 0
// 84 "arch/arm64/kernel/asm-offsets.c" 1
	
->CLOCK_REALTIME_COARSE 5 CLOCK_REALTIME_COARSE	//
// 0 "" 2
// arch/arm64/kernel/asm-offsets.c:85:   DEFINE(CLOCK_MONOTONIC_COARSE,CLOCK_MONOTONIC_COARSE);
	.loc 1 85 0
// 85 "arch/arm64/kernel/asm-offsets.c" 1
	
->CLOCK_MONOTONIC_COARSE 6 CLOCK_MONOTONIC_COARSE	//
// 0 "" 2
// arch/arm64/kernel/asm-offsets.c:86:   DEFINE(CLOCK_COARSE_RES,	LOW_RES_NSEC);
	.loc 1 86 0
// 86 "arch/arm64/kernel/asm-offsets.c" 1
	
->CLOCK_COARSE_RES 10000000 LOW_RES_NSEC	//
// 0 "" 2
// arch/arm64/kernel/asm-offsets.c:87:   DEFINE(NSEC_PER_SEC,		NSEC_PER_SEC);
	.loc 1 87 0
// 87 "arch/arm64/kernel/asm-offsets.c" 1
	
->NSEC_PER_SEC 1000000000 NSEC_PER_SEC	//
// 0 "" 2
// arch/arm64/kernel/asm-offsets.c:88:   BLANK();
	.loc 1 88 0
// 88 "arch/arm64/kernel/asm-offsets.c" 1
	
->
// 0 "" 2
// arch/arm64/kernel/asm-offsets.c:89:   DEFINE(VDSO_CS_CYCLE_LAST,	offsetof(struct vdso_data, cs_cycle_last));
	.loc 1 89 0
// 89 "arch/arm64/kernel/asm-offsets.c" 1
	
->VDSO_CS_CYCLE_LAST 0 offsetof(struct vdso_data, cs_cycle_last)	//
// 0 "" 2
// arch/arm64/kernel/asm-offsets.c:90:   DEFINE(VDSO_XTIME_CLK_SEC,	offsetof(struct vdso_data, xtime_clock_sec));
	.loc 1 90 0
// 90 "arch/arm64/kernel/asm-offsets.c" 1
	
->VDSO_XTIME_CLK_SEC 8 offsetof(struct vdso_data, xtime_clock_sec)	//
// 0 "" 2
// arch/arm64/kernel/asm-offsets.c:91:   DEFINE(VDSO_XTIME_CLK_NSEC,	offsetof(struct vdso_data, xtime_clock_nsec));
	.loc 1 91 0
// 91 "arch/arm64/kernel/asm-offsets.c" 1
	
->VDSO_XTIME_CLK_NSEC 16 offsetof(struct vdso_data, xtime_clock_nsec)	//
// 0 "" 2
// arch/arm64/kernel/asm-offsets.c:92:   DEFINE(VDSO_XTIME_CRS_SEC,	offsetof(struct vdso_data, xtime_coarse_sec));
	.loc 1 92 0
// 92 "arch/arm64/kernel/asm-offsets.c" 1
	
->VDSO_XTIME_CRS_SEC 24 offsetof(struct vdso_data, xtime_coarse_sec)	//
// 0 "" 2
// arch/arm64/kernel/asm-offsets.c:93:   DEFINE(VDSO_XTIME_CRS_NSEC,	offsetof(struct vdso_data, xtime_coarse_nsec));
	.loc 1 93 0
// 93 "arch/arm64/kernel/asm-offsets.c" 1
	
->VDSO_XTIME_CRS_NSEC 32 offsetof(struct vdso_data, xtime_coarse_nsec)	//
// 0 "" 2
// arch/arm64/kernel/asm-offsets.c:94:   DEFINE(VDSO_WTM_CLK_SEC,	offsetof(struct vdso_data, wtm_clock_sec));
	.loc 1 94 0
// 94 "arch/arm64/kernel/asm-offsets.c" 1
	
->VDSO_WTM_CLK_SEC 40 offsetof(struct vdso_data, wtm_clock_sec)	//
// 0 "" 2
// arch/arm64/kernel/asm-offsets.c:95:   DEFINE(VDSO_WTM_CLK_NSEC,	offsetof(struct vdso_data, wtm_clock_nsec));
	.loc 1 95 0
// 95 "arch/arm64/kernel/asm-offsets.c" 1
	
->VDSO_WTM_CLK_NSEC 48 offsetof(struct vdso_data, wtm_clock_nsec)	//
// 0 "" 2
// arch/arm64/kernel/asm-offsets.c:96:   DEFINE(VDSO_TB_SEQ_COUNT,	offsetof(struct vdso_data, tb_seq_count));
	.loc 1 96 0
// 96 "arch/arm64/kernel/asm-offsets.c" 1
	
->VDSO_TB_SEQ_COUNT 56 offsetof(struct vdso_data, tb_seq_count)	//
// 0 "" 2
// arch/arm64/kernel/asm-offsets.c:97:   DEFINE(VDSO_CS_MULT,		offsetof(struct vdso_data, cs_mult));
	.loc 1 97 0
// 97 "arch/arm64/kernel/asm-offsets.c" 1
	
->VDSO_CS_MULT 60 offsetof(struct vdso_data, cs_mult)	//
// 0 "" 2
// arch/arm64/kernel/asm-offsets.c:98:   DEFINE(VDSO_CS_SHIFT,		offsetof(struct vdso_data, cs_shift));
	.loc 1 98 0
// 98 "arch/arm64/kernel/asm-offsets.c" 1
	
->VDSO_CS_SHIFT 64 offsetof(struct vdso_data, cs_shift)	//
// 0 "" 2
// arch/arm64/kernel/asm-offsets.c:99:   DEFINE(VDSO_TZ_MINWEST,	offsetof(struct vdso_data, tz_minuteswest));
	.loc 1 99 0
// 99 "arch/arm64/kernel/asm-offsets.c" 1
	
->VDSO_TZ_MINWEST 68 offsetof(struct vdso_data, tz_minuteswest)	//
// 0 "" 2
// arch/arm64/kernel/asm-offsets.c:100:   DEFINE(VDSO_TZ_DSTTIME,	offsetof(struct vdso_data, tz_dsttime));
	.loc 1 100 0
// 100 "arch/arm64/kernel/asm-offsets.c" 1
	
->VDSO_TZ_DSTTIME 72 offsetof(struct vdso_data, tz_dsttime)	//
// 0 "" 2
// arch/arm64/kernel/asm-offsets.c:101:   DEFINE(VDSO_USE_SYSCALL,	offsetof(struct vdso_data, use_syscall));
	.loc 1 101 0
// 101 "arch/arm64/kernel/asm-offsets.c" 1
	
->VDSO_USE_SYSCALL 76 offsetof(struct vdso_data, use_syscall)	//
// 0 "" 2
// arch/arm64/kernel/asm-offsets.c:102:   BLANK();
	.loc 1 102 0
// 102 "arch/arm64/kernel/asm-offsets.c" 1
	
->
// 0 "" 2
// arch/arm64/kernel/asm-offsets.c:103:   DEFINE(TVAL_TV_SEC,		offsetof(struct timeval, tv_sec));
	.loc 1 103 0
// 103 "arch/arm64/kernel/asm-offsets.c" 1
	
->TVAL_TV_SEC 0 offsetof(struct timeval, tv_sec)	//
// 0 "" 2
// arch/arm64/kernel/asm-offsets.c:104:   DEFINE(TVAL_TV_USEC,		offsetof(struct timeval, tv_usec));
	.loc 1 104 0
// 104 "arch/arm64/kernel/asm-offsets.c" 1
	
->TVAL_TV_USEC 8 offsetof(struct timeval, tv_usec)	//
// 0 "" 2
// arch/arm64/kernel/asm-offsets.c:105:   DEFINE(TSPEC_TV_SEC,		offsetof(struct timespec, tv_sec));
	.loc 1 105 0
// 105 "arch/arm64/kernel/asm-offsets.c" 1
	
->TSPEC_TV_SEC 0 offsetof(struct timespec, tv_sec)	//
// 0 "" 2
// arch/arm64/kernel/asm-offsets.c:106:   DEFINE(TSPEC_TV_NSEC,		offsetof(struct timespec, tv_nsec));
	.loc 1 106 0
// 106 "arch/arm64/kernel/asm-offsets.c" 1
	
->TSPEC_TV_NSEC 8 offsetof(struct timespec, tv_nsec)	//
// 0 "" 2
// arch/arm64/kernel/asm-offsets.c:107:   BLANK();
	.loc 1 107 0
// 107 "arch/arm64/kernel/asm-offsets.c" 1
	
->
// 0 "" 2
// arch/arm64/kernel/asm-offsets.c:108:   DEFINE(TZ_MINWEST,		offsetof(struct timezone, tz_minuteswest));
	.loc 1 108 0
// 108 "arch/arm64/kernel/asm-offsets.c" 1
	
->TZ_MINWEST 0 offsetof(struct timezone, tz_minuteswest)	//
// 0 "" 2
// arch/arm64/kernel/asm-offsets.c:109:   DEFINE(TZ_DSTTIME,		offsetof(struct timezone, tz_dsttime));
	.loc 1 109 0
// 109 "arch/arm64/kernel/asm-offsets.c" 1
	
->TZ_DSTTIME 4 offsetof(struct timezone, tz_dsttime)	//
// 0 "" 2
// arch/arm64/kernel/asm-offsets.c:111:   DEFINE(CPU_SUSPEND_SZ,	sizeof(struct cpu_suspend_ctx));
	.loc 1 111 0
// 111 "arch/arm64/kernel/asm-offsets.c" 1
	
->CPU_SUSPEND_SZ 96 sizeof(struct cpu_suspend_ctx)	//
// 0 "" 2
// arch/arm64/kernel/asm-offsets.c:112:   DEFINE(CPU_CTX_SP,		offsetof(struct cpu_suspend_ctx, sp));
	.loc 1 112 0
// 112 "arch/arm64/kernel/asm-offsets.c" 1
	
->CPU_CTX_SP 88 offsetof(struct cpu_suspend_ctx, sp)	//
// 0 "" 2
// arch/arm64/kernel/asm-offsets.c:113:   DEFINE(MPIDR_HASH_MASK,	offsetof(struct mpidr_hash, mask));
	.loc 1 113 0
// 113 "arch/arm64/kernel/asm-offsets.c" 1
	
->MPIDR_HASH_MASK 0 offsetof(struct mpidr_hash, mask)	//
// 0 "" 2
// arch/arm64/kernel/asm-offsets.c:114:   DEFINE(MPIDR_HASH_SHIFTS,	offsetof(struct mpidr_hash, shift_aff));
	.loc 1 114 0
// 114 "arch/arm64/kernel/asm-offsets.c" 1
	
->MPIDR_HASH_SHIFTS 8 offsetof(struct mpidr_hash, shift_aff)	//
// 0 "" 2
// arch/arm64/kernel/asm-offsets.c:115:   DEFINE(SLEEP_SAVE_SP_SZ,	sizeof(struct sleep_save_sp));
	.loc 1 115 0
// 115 "arch/arm64/kernel/asm-offsets.c" 1
	
->SLEEP_SAVE_SP_SZ 16 sizeof(struct sleep_save_sp)	//
// 0 "" 2
// arch/arm64/kernel/asm-offsets.c:116:   DEFINE(SLEEP_SAVE_SP_PHYS,	offsetof(struct sleep_save_sp, save_ptr_stash_phys));
	.loc 1 116 0
// 116 "arch/arm64/kernel/asm-offsets.c" 1
	
->SLEEP_SAVE_SP_PHYS 8 offsetof(struct sleep_save_sp, save_ptr_stash_phys)	//
// 0 "" 2
// arch/arm64/kernel/asm-offsets.c:117:   DEFINE(SLEEP_SAVE_SP_VIRT,	offsetof(struct sleep_save_sp, save_ptr_stash));
	.loc 1 117 0
// 117 "arch/arm64/kernel/asm-offsets.c" 1
	
->SLEEP_SAVE_SP_VIRT 0 offsetof(struct sleep_save_sp, save_ptr_stash)	//
// 0 "" 2
// arch/arm64/kernel/asm-offsets.c:119:   BLANK();
	.loc 1 119 0
// 119 "arch/arm64/kernel/asm-offsets.c" 1
	
->
// 0 "" 2
// arch/arm64/kernel/asm-offsets.c:153:   DEFINE(CPU_SUSPEND_SZ,	sizeof(struct cpu_suspend_ctx));
	.loc 1 153 0
// 153 "arch/arm64/kernel/asm-offsets.c" 1
	
->CPU_SUSPEND_SZ 96 sizeof(struct cpu_suspend_ctx)	//
// 0 "" 2
// arch/arm64/kernel/asm-offsets.c:154:   DEFINE(CPU_CTX_SP,		offsetof(struct cpu_suspend_ctx, sp));
	.loc 1 154 0
// 154 "arch/arm64/kernel/asm-offsets.c" 1
	
->CPU_CTX_SP 88 offsetof(struct cpu_suspend_ctx, sp)	//
// 0 "" 2
// arch/arm64/kernel/asm-offsets.c:155:   DEFINE(MPIDR_HASH_MASK,	offsetof(struct mpidr_hash, mask));
	.loc 1 155 0
// 155 "arch/arm64/kernel/asm-offsets.c" 1
	
->MPIDR_HASH_MASK 0 offsetof(struct mpidr_hash, mask)	//
// 0 "" 2
// arch/arm64/kernel/asm-offsets.c:156:   DEFINE(MPIDR_HASH_SHIFTS,	offsetof(struct mpidr_hash, shift_aff));
	.loc 1 156 0
// 156 "arch/arm64/kernel/asm-offsets.c" 1
	
->MPIDR_HASH_SHIFTS 8 offsetof(struct mpidr_hash, shift_aff)	//
// 0 "" 2
// arch/arm64/kernel/asm-offsets.c:157:   DEFINE(SLEEP_SAVE_SP_SZ,	sizeof(struct sleep_save_sp));
	.loc 1 157 0
// 157 "arch/arm64/kernel/asm-offsets.c" 1
	
->SLEEP_SAVE_SP_SZ 16 sizeof(struct sleep_save_sp)	//
// 0 "" 2
// arch/arm64/kernel/asm-offsets.c:158:   DEFINE(SLEEP_SAVE_SP_PHYS,	offsetof(struct sleep_save_sp, save_ptr_stash_phys));
	.loc 1 158 0
// 158 "arch/arm64/kernel/asm-offsets.c" 1
	
->SLEEP_SAVE_SP_PHYS 8 offsetof(struct sleep_save_sp, save_ptr_stash_phys)	//
// 0 "" 2
// arch/arm64/kernel/asm-offsets.c:159:   DEFINE(SLEEP_SAVE_SP_VIRT,	offsetof(struct sleep_save_sp, save_ptr_stash));
	.loc 1 159 0
// 159 "arch/arm64/kernel/asm-offsets.c" 1
	
->SLEEP_SAVE_SP_VIRT 0 offsetof(struct sleep_save_sp, save_ptr_stash)	//
// 0 "" 2
// arch/arm64/kernel/asm-offsets.c:162: }
	.loc 1 162 0
#NO_APP
	mov	w0, 0	//,
	ldp	x29, x30, [sp], 16	//,,,
	.cfi_restore 30
	.cfi_restore 29
	.cfi_def_cfa 31, 0
	ret
	.cfi_endproc
.LFE1493:
	.size	main, .-main
	.text
.Letext0:
	.file 2 "include/uapi/asm-generic/int-ll64.h"
	.file 3 "include/asm-generic/int-ll64.h"
	.file 4 "/home/yankit293/stock/msm8939v2/include/uapi/asm-generic/posix_types.h"
	.file 5 "include/linux/types.h"
	.file 6 "include/linux/capability.h"
	.file 7 "include/linux/init.h"
	.file 8 "include/linux/printk.h"
	.file 9 "include/linux/notifier.h"
	.file 10 "include/linux/kernel.h"
	.file 11 "include/linux/thread_info.h"
	.file 12 "include/uapi/linux/time.h"
	.file 13 "/home/yankit293/stock/msm8939v2/arch/arm64/include/asm/thread_info.h"
	.file 14 "include/linux/sched.h"
	.file 15 "/home/yankit293/stock/msm8939v2/arch/arm64/include/asm/hwcap.h"
	.file 16 "/home/yankit293/stock/msm8939v2/arch/arm64/include/uapi/asm/ptrace.h"
	.file 17 "/home/yankit293/stock/msm8939v2/arch/arm64/include/asm/ptrace.h"
	.file 18 "/home/yankit293/stock/msm8939v2/arch/arm64/include/asm/spinlock_types.h"
	.file 19 "include/linux/lockdep.h"
	.file 20 "include/linux/spinlock_types.h"
	.file 21 "include/linux/rwlock_types.h"
	.file 22 "/home/yankit293/stock/msm8939v2/arch/arm64/include/asm/fpsimd.h"
	.file 23 "/home/yankit293/stock/msm8939v2/arch/arm64/include/asm/hw_breakpoint.h"
	.file 24 "/home/yankit293/stock/msm8939v2/arch/arm64/include/asm/processor.h"
	.file 25 "include/asm-generic/atomic-long.h"
	.file 26 "include/linux/time.h"
	.file 27 "include/linux/jiffies.h"
	.file 28 "include/linux/ktime.h"
	.file 29 "include/linux/timer.h"
	.file 30 "include/linux/mm_types.h"
	.file 31 "/home/yankit293/stock/msm8939v2/arch/arm64/include/asm/pgtable-3level-types.h"
	.file 32 "/home/yankit293/stock/msm8939v2/arch/arm64/include/asm/memory.h"
	.file 33 "/home/yankit293/stock/msm8939v2/arch/arm64/include/asm/pgtable.h"
	.file 34 "include/linux/rbtree.h"
	.file 35 "include/linux/rwsem.h"
	.file 36 "include/linux/wait.h"
	.file 37 "include/linux/completion.h"
	.file 38 "include/linux/cpumask.h"
	.file 39 "include/linux/uprobes.h"
	.file 40 "/home/yankit293/stock/msm8939v2/arch/arm64/include/asm/mmu.h"
	.file 41 "include/linux/slub_def.h"
	.file 42 "include/linux/mm.h"
	.file 43 "include/clocksource/arm_arch_timer.h"
	.file 44 "include/linux/timex.h"
	.file 45 "include/linux/nodemask.h"
	.file 46 "include/asm-generic/cputime_jiffies.h"
	.file 47 "include/linux/smp.h"
	.file 48 "/home/yankit293/stock/msm8939v2/arch/arm64/include/asm/smp.h"
	.file 49 "include/linux/rcutree.h"
	.file 50 "include/linux/highuid.h"
	.file 51 "include/linux/uidgid.h"
	.file 52 "include/linux/sem.h"
	.file 53 "include/uapi/asm-generic/signal.h"
	.file 54 "/home/yankit293/stock/msm8939v2/include/uapi/asm-generic/signal-defs.h"
	.file 55 "include/uapi/asm-generic/siginfo.h"
	.file 56 "include/linux/signal.h"
	.file 57 "include/linux/pid.h"
	.file 58 "include/asm-generic/percpu.h"
	.file 59 "include/linux/percpu.h"
	.file 60 "include/linux/mmzone.h"
	.file 61 "include/linux/mutex.h"
	.file 62 "include/linux/workqueue.h"
	.file 63 "include/linux/srcu.h"
	.file 64 "include/linux/memory_hotplug.h"
	.file 65 "/home/yankit293/stock/msm8939v2/arch/arm64/include/asm/topology.h"
	.file 66 "include/linux/percpu_counter.h"
	.file 67 "include/linux/seccomp.h"
	.file 68 "include/linux/plist.h"
	.file 69 "include/linux/rtmutex.h"
	.file 70 "include/uapi/linux/resource.h"
	.file 71 "include/linux/timerqueue.h"
	.file 72 "include/linux/hrtimer.h"
	.file 73 "include/linux/task_io_accounting.h"
	.file 74 "include/linux/sysctl.h"
	.file 75 "include/linux/key.h"
	.file 76 "include/linux/cred.h"
	.file 77 "include/linux/llist.h"
	.file 78 "include/linux/gfp.h"
	.file 79 "include/linux/debug_locks.h"
	.file 80 "include/linux/vmstat.h"
	.file 81 "include/linux/ioport.h"
	.file 82 "include/linux/kobject_ns.h"
	.file 83 "include/linux/sysfs.h"
	.file 84 "include/linux/kobject.h"
	.file 85 "include/linux/kref.h"
	.file 86 "include/linux/klist.h"
	.file 87 "include/linux/pinctrl/devinfo.h"
	.file 88 "include/linux/pm.h"
	.file 89 "include/linux/device.h"
	.file 90 "include/linux/pm_wakeup.h"
	.file 91 "include/linux/ratelimit.h"
	.file 92 "/home/yankit293/stock/msm8939v2/arch/arm64/include/asm/device.h"
	.file 93 "include/linux/dma-mapping.h"
	.file 94 "include/linux/dma-attrs.h"
	.file 95 "include/linux/dma-direction.h"
	.file 96 "include/asm-generic/scatterlist.h"
	.file 97 "include/linux/scatterlist.h"
	.file 98 "include/linux/vmalloc.h"
	.file 99 "/home/yankit293/stock/msm8939v2/arch/arm64/include/../../arm/include/asm/xen/hypervisor.h"
	.file 100 "/home/yankit293/stock/msm8939v2/arch/arm64/include/asm/dma-mapping.h"
	.file 101 "/home/yankit293/stock/msm8939v2/arch/arm64/include/asm/irq.h"
	.file 102 "/home/yankit293/stock/msm8939v2/arch/arm64/include/asm/hardirq.h"
	.file 103 "include/linux/irq_cpustat.h"
	.file 104 "include/linux/slab.h"
	.file 105 "include/asm-generic/ioctl.h"
	.file 106 "/home/yankit293/stock/msm8939v2/arch/arm64/include/uapi/asm/kvm.h"
	.file 107 "/home/yankit293/stock/msm8939v2/include/uapi/linux/kvm.h"
	.file 108 "include/linux/kvm_types.h"
	.file 109 "include/linux/kvm_host.h"
	.file 110 "/home/yankit293/stock/msm8939v2/arch/arm64/include/asm/kvm_asm.h"
	.file 111 "/home/yankit293/stock/msm8939v2/arch/arm64/include/asm/kvm_mmio.h"
	.file 112 "include/linux/irqchip/arm-gic.h"
	.file 113 "include/kvm/arm_vgic.h"
	.file 114 "include/kvm/arm_arch_timer.h"
	.file 115 "/home/yankit293/stock/msm8939v2/arch/arm64/include/asm/kvm_host.h"
	.file 116 "/home/yankit293/stock/msm8939v2/arch/arm64/include/asm/smp_plat.h"
	.section	.note.GNU-stack,"",@progbits
